target datalayout = "e-m:e-p270:32:32-p271:32:32-p272:64:64-i64:64-i128:128-f80:128-n8:16:32:64-S128"
target triple = "x86_64-pc-linux-gnu"

%"class.std::__cxx11::basic_string" = type { %"struct.std::__cxx11::basic_string<char>::_Alloc_hider", i64, %union.anon }
%"struct.std::__cxx11::basic_string<char>::_Alloc_hider" = type { ptr }
%union.anon = type { i64, [8 x i8] }
%"class.std::map" = type { %"class.std::_Rb_tree" }
%"class.std::_Rb_tree" = type { %"struct.std::_Rb_tree<unsigned long, std::pair<const unsigned long, unsigned long>, std::_Select1st<std::pair<const unsigned long, unsigned long>>, std::less<unsigned long>>::_Rb_tree_impl" }
%"struct.std::_Rb_tree<unsigned long, std::pair<const unsigned long, unsigned long>, std::_Select1st<std::pair<const unsigned long, unsigned long>>, std::less<unsigned long>>::_Rb_tree_impl" = type { [8 x i8], %"struct.std::_Rb_tree_header" }
%"struct.std::_Rb_tree_header" = type { %"struct.std::_Rb_tree_node_base", i64 }
%"struct.std::_Rb_tree_node_base" = type { i32, ptr, ptr, ptr }
%"class.std::__shared_count" = type { ptr }
%union.pthread_mutex_t = type { %struct.__pthread_mutex_s }
%struct.__pthread_mutex_s = type { i32, i32, i32, i32, i32, i16, i16, %struct.__pthread_internal_list }
%struct.__pthread_internal_list = type { ptr, ptr }
%"struct.std::__detail::_Hash_node_base" = type { ptr }
%"struct.std::__detail::_Prime_rehash_policy" = type { float, i64 }
%"class.std::mutex" = type { %"class.std::__mutex_base" }
%"class.std::__mutex_base" = type { %union.pthread_mutex_t }
%"class.std::vector.50" = type { %"struct.std::_Vector_base.51" }
%"struct.std::_Vector_base.51" = type { %"struct.std::_Vector_base<unsigned long, std::allocator<unsigned long>>::_Vector_impl" }
%"struct.std::_Vector_base<unsigned long, std::allocator<unsigned long>>::_Vector_impl" = type { %"struct.std::_Vector_base<unsigned long, std::allocator<unsigned long>>::_Vector_impl_data" }
%"struct.std::_Vector_base<unsigned long, std::allocator<unsigned long>>::_Vector_impl_data" = type { ptr, ptr, ptr }
%"class.rocksdb::WriteUnpreparedTxn" = type { %"class.rocksdb::WritePreparedTxn", i64, ptr, %"class.std::map", i64, i8, i64, %"class.std::unique_ptr.163", %"class.std::unique_ptr.171", %"class.std::vector.179", %"class.std::unordered_map.184" }
%"class.rocksdb::WritePreparedTxn" = type { %"class.rocksdb::PessimisticTransaction.base", ptr, i64 }
%"class.rocksdb::PessimisticTransaction.base" = type <{ %"class.rocksdb::TransactionBaseImpl", ptr, ptr, i64, i64, i64, i8, i8, [2 x i8], i32, i64, %"class.rocksdb::autovector", i32, [4 x i8], ptr, %"class.std::mutex", i64, i8, [7 x i8], i64, i8 }>
%"class.rocksdb::TransactionBaseImpl" = type { %"class.rocksdb::Transaction", ptr, ptr, %"struct.rocksdb::WriteOptions", ptr, ptr, i64, %"class.std::shared_ptr.95", i64, i64, i64, i64, %"class.rocksdb::WriteBatchWithIndex", %"class.std::unique_ptr.106", %"class.std::unique_ptr.114", %"class.rocksdb::WriteBatch", i8, i8, %"class.std::shared_ptr.160" }
%"class.rocksdb::Transaction" = type { ptr, i64, %"class.std::__cxx11::basic_string", %"struct.std::atomic.94", i64 }
%"struct.std::atomic.94" = type { i32 }
%"struct.rocksdb::WriteOptions" = type <{ i8, i8, i8, i8, i8, i8, [2 x i8], i32, [4 x i8], i64, i8, [7 x i8] }>
%"class.std::shared_ptr.95" = type { %"class.std::__shared_ptr.96" }
%"class.std::__shared_ptr.96" = type { ptr, %"class.std::__shared_count" }
%"class.rocksdb::WriteBatchWithIndex" = type { %"class.rocksdb::WriteBatchBase", %"class.std::unique_ptr.98" }
%"class.rocksdb::WriteBatchBase" = type { ptr }
%"class.std::unique_ptr.98" = type { %"struct.std::__uniq_ptr_data.99" }
%"struct.std::__uniq_ptr_data.99" = type { %"class.std::__uniq_ptr_impl.100" }
%"class.std::__uniq_ptr_impl.100" = type { %"class.std::tuple.101" }
%"class.std::tuple.101" = type { %"struct.std::_Tuple_impl.102" }
%"struct.std::_Tuple_impl.102" = type { %"struct.std::_Head_base.105" }
%"struct.std::_Head_base.105" = type { ptr }
%"class.std::unique_ptr.106" = type { %"struct.std::__uniq_ptr_data.107" }
%"struct.std::__uniq_ptr_data.107" = type { %"class.std::__uniq_ptr_impl.108" }
%"class.std::__uniq_ptr_impl.108" = type { %"class.std::tuple.109" }
%"class.std::tuple.109" = type { %"struct.std::_Tuple_impl.110" }
%"struct.std::_Tuple_impl.110" = type { %"struct.std::_Head_base.113" }
%"struct.std::_Head_base.113" = type { ptr }
%"class.std::unique_ptr.114" = type { %"struct.std::__uniq_ptr_data.115" }
%"struct.std::__uniq_ptr_data.115" = type { %"class.std::__uniq_ptr_impl.116" }
%"class.std::__uniq_ptr_impl.116" = type { %"class.std::tuple.117" }
%"class.std::tuple.117" = type { %"struct.std::_Tuple_impl.118" }
%"struct.std::_Tuple_impl.118" = type { %"struct.std::_Head_base.121" }
%"struct.std::_Head_base.121" = type { ptr }
%"class.rocksdb::WriteBatch" = type { %"class.rocksdb::WriteBatchBase", %"class.std::unique_ptr.122", %"struct.rocksdb::SavePoint", i8, i8, i8, %"struct.std::atomic.130", i64, %"class.std::unique_ptr.132", i64, i8, %"class.std::unordered_map.140", %"class.std::__cxx11::basic_string" }
%"class.std::unique_ptr.122" = type { %"struct.std::__uniq_ptr_data.123" }
%"struct.std::__uniq_ptr_data.123" = type { %"class.std::__uniq_ptr_impl.124" }
%"class.std::__uniq_ptr_impl.124" = type { %"class.std::tuple.125" }
%"class.std::tuple.125" = type { %"struct.std::_Tuple_impl.126" }
%"struct.std::_Tuple_impl.126" = type { %"struct.std::_Head_base.129" }
%"struct.std::_Head_base.129" = type { ptr }
%"struct.rocksdb::SavePoint" = type { i64, i32, i32 }
%"struct.std::atomic.130" = type { %"struct.std::__atomic_base.131" }
%"struct.std::__atomic_base.131" = type { i32 }
%"class.std::unique_ptr.132" = type { %"struct.std::__uniq_ptr_data.133" }
%"struct.std::__uniq_ptr_data.133" = type { %"class.std::__uniq_ptr_impl.134" }
%"class.std::__uniq_ptr_impl.134" = type { %"class.std::tuple.135" }
%"class.std::tuple.135" = type { %"struct.std::_Tuple_impl.136" }
%"struct.std::_Tuple_impl.136" = type { %"struct.std::_Head_base.139" }
%"struct.std::_Head_base.139" = type { ptr }
%"class.std::unordered_map.140" = type { %"class.std::_Hashtable.141" }
%"class.std::_Hashtable.141" = type { ptr, i64, %"struct.std::__detail::_Hash_node_base", i64, %"struct.std::__detail::_Prime_rehash_policy", ptr }
%"class.std::shared_ptr.160" = type { %"class.std::__shared_ptr.161" }
%"class.std::__shared_ptr.161" = type { ptr, %"class.std::__shared_count" }
%"class.rocksdb::autovector" = type { i64, [64 x i8], ptr, %"class.std::vector.50" }
%"class.std::unique_ptr.163" = type { %"struct.std::__uniq_ptr_data.164" }
%"struct.std::__uniq_ptr_data.164" = type { %"class.std::__uniq_ptr_impl.165" }
%"class.std::__uniq_ptr_impl.165" = type { %"class.std::tuple.166" }
%"class.std::tuple.166" = type { %"struct.std::_Tuple_impl.167" }
%"struct.std::_Tuple_impl.167" = type { %"struct.std::_Head_base.170" }
%"struct.std::_Head_base.170" = type { ptr }
%"class.std::unique_ptr.171" = type { %"struct.std::__uniq_ptr_data.172" }
%"struct.std::__uniq_ptr_data.172" = type { %"class.std::__uniq_ptr_impl.173" }
%"class.std::__uniq_ptr_impl.173" = type { %"class.std::tuple.174" }
%"class.std::tuple.174" = type { %"struct.std::_Tuple_impl.175" }
%"struct.std::_Tuple_impl.175" = type { %"struct.std::_Head_base.178" }
%"struct.std::_Head_base.178" = type { ptr }
%"class.std::vector.179" = type { %"struct.std::_Vector_base.180" }
%"struct.std::_Vector_base.180" = type { %"struct.std::_Vector_base<rocksdb::Iterator *, std::allocator<rocksdb::Iterator *>>::_Vector_impl" }
%"struct.std::_Vector_base<rocksdb::Iterator *, std::allocator<rocksdb::Iterator *>>::_Vector_impl" = type { %"struct.std::_Vector_base<rocksdb::Iterator *, std::allocator<rocksdb::Iterator *>>::_Vector_impl_data" }
%"struct.std::_Vector_base<rocksdb::Iterator *, std::allocator<rocksdb::Iterator *>>::_Vector_impl_data" = type { ptr, ptr, ptr }
%"class.std::unordered_map.184" = type { %"class.std::_Hashtable.185" }
%"class.std::_Hashtable.185" = type { ptr, i64, %"struct.std::__detail::_Hash_node_base", i64, %"struct.std::__detail::_Prime_rehash_policy", ptr }

; Function Attrs: mustprogress uwtable
define noundef ptr @_ZN7rocksdb18WriteUnpreparedTxn11GetIteratorERKNS_11ReadOptionsE(ptr noundef nonnull align 8 dereferenceable(848) %0, ptr noundef nonnull align 8 dereferenceable(168) %1) unnamed_addr #5 align 2 {
  %3 = alloca ptr, align 8
  %4 = alloca ptr, align 8
  store ptr %0, ptr %3, align 8, !tbaa !191
  store ptr %1, ptr %4, align 8, !tbaa !521
  %5 = load ptr, ptr %3, align 8
  %6 = load ptr, ptr %4, align 8, !tbaa !521
  %7 = getelementptr inbounds nuw %"class.rocksdb::WriteUnpreparedTxn", ptr %5, i32 0, i32 2
  %8 = load ptr, ptr %7, align 8, !tbaa !201
  %9 = load ptr, ptr %8, align 8, !tbaa !199
  %10 = getelementptr inbounds ptr, ptr %9, i64 135
  %11 = load ptr, ptr %10, align 8
  %12 = call noundef ptr %11(ptr noundef nonnull align 8 dereferenceable(32) %8)
  %13 = load ptr, ptr %5, align 8, !tbaa !199
  %14 = getelementptr inbounds ptr, ptr %13, i64 31
  %15 = load ptr, ptr %14, align 8
  %16 = call noundef ptr %15(ptr noundef nonnull align 8 dereferenceable(848) %5, ptr noundef nonnull align 8 dereferenceable(168) %6, ptr noundef %12)
  ret ptr %16
}