; Function Attrs: mustprogress uwtable
define noundef ptr @_ZN7rocksdb18WriteUnpreparedTxn11GetIteratorERKNS_11ReadOptionsE(ptr noundef nonnull align 8 dereferenceable(848) %0, ptr noundef nonnull align 8 dereferenceable(168) %1) unnamed_addr #4 align 2 {
  %3 = getelementptr inbounds nuw i8, ptr %0, i64 672
  %4 = load ptr, ptr %3, align 8, !tbaa !173
  %5 = load ptr, ptr %4, align 8, !tbaa !155
  %6 = getelementptr inbounds nuw i8, ptr %5, i64 1080
  %7 = load ptr, ptr %6, align 8
  %8 = tail call noundef ptr %7(ptr noundef nonnull align 8 dereferenceable(32) %4)
  %9 = load ptr, ptr %0, align 8, !tbaa !155
  %10 = getelementptr inbounds nuw i8, ptr %9, i64 248
  %11 = load ptr, ptr %10, align 8
  %12 = tail call noundef ptr %11(ptr noundef nonnull align 8 dereferenceable(848) %0, ptr noundef nonnull align 8 dereferenceable(168) %1, ptr noundef %8)
  ret ptr %12
}